Certificate:
    Data:
        Version: 3 (0x2)
        Serial Number: 2 (0x2)
    Signature Algorithm: sha256WithRSAEncryption
        Issuer: C=US, ST=CA, L=SanFrancisco, O=Fort-Funston, OU=MyOrganizationalUnit, CN=Alex/name=EasyRSA/emailAddress=me@myhost.mydomain
        Validity
            Not Before: Nov  9 20:28:39 2014 GMT
            Not After : Nov  6 20:28:39 2024 GMT
        Subject: C=US, ST=CA, L=SanFrancisco, O=Fort-Funston, OU=MyOrganizationalUnit, CN=c1/name=EasyRSA/emailAddress=me@myhost.mydomain
        Subject Public Key Info:
            Public Key Algorithm: rsaEncryption
                Public-Key: (2048 bit)
                Modulus:
                    00:c6:0e:56:93:44:27:88:b8:83:cc:1d:fd:3c:e7:
                    c1:64:5c:f9:38:95:dd:1d:04:8e:52:f7:2a:5b:5a:
                    d5:b6:3a:19:a0:83:55:82:10:0d:a0:83:6b:9c:d1:
                    fe:17:93:0b:fc:5f:38:e7:f3:89:76:38:1a:3b:27:
                    97:de:17:77:f6:25:df:9e:38:b5:fd:5d:1c:16:02:
                    ae:b4:ff:53:b3:7c:52:9c:24:9f:07:f7:c2:f1:94:
                    da:a3:da:fd:67:87:6f:bd:5a:8c:9c:e2:6f:1d:71:
                    43:44:21:2e:1f:fa:c2:9a:9b:70:91:3d:24:76:55:
                    7b:74:5f:7c:43:be:50:c1:61:5e:cb:b6:ea:68:cf:
                    67:8c:63:b8:ce:2a:0b:75:28:31:57:59:69:69:f0:
                    17:f4:4a:3d:dc:8a:a1:7e:00:ef:5d:ad:e0:20:75:
                    6f:6f:7e:f4:15:43:fa:8f:bd:d9:2a:bb:0f:ec:cf:
                    2b:35:33:13:4d:2c:3b:dc:2d:77:b1:5b:54:8b:59:
                    f5:d5:13:58:96:18:30:12:3a:cb:72:26:95:79:d0:
                    35:bf:ae:b7:53:8d:3d:8b:cb:41:12:42:ed:07:63:
                    00:96:23:ab:c4:0a:7b:95:22:fa:c5:3e:c3:14:cc:
                    fc:f4:39:90:65:25:66:8f:4c:61:49:b2:e6:06:d7:
                    89:d3
                Exponent: 65537 (0x10001)
        X509v3 extensions:
            X509v3 Basic Constraints: 
                CA:FALSE
            Netscape Comment: 
                Easy-RSA Generated Certificate
            X509v3 Subject Key Identifier: 
                39:CA:53:1A:98:F4:4C:80:B5:51:E3:A8:DD:2A:17:B9:38:CA:D3:C8
            X509v3 Authority Key Identifier: 
                keyid:00:CD:9A:E1:94:74:F7:0C:8C:6B:A8:B3:69:F3:FA:A2:4A:52:96:FD
                DirName:/C=US/ST=CA/L=SanFrancisco/O=Fort-Funston/OU=MyOrganizationalUnit/CN=Alex/name=EasyRSA/emailAddress=me@myhost.mydomain
                serial:D6:B5:FD:E3:B6:6D:9B:00

            X509v3 Extended Key Usage: 
                TLS Web Client Authentication
            X509v3 Key Usage: 
                Digital Signature
    Signature Algorithm: sha256WithRSAEncryption
         4d:b7:0d:7b:eb:9e:3a:09:4e:07:6b:22:b5:ed:5d:41:d2:ff:
         f7:5b:21:88:bb:f2:89:b8:d6:ab:99:b2:d2:d1:8a:0d:9b:0b:
         d4:d6:8e:4a:a2:79:16:c8:6a:e4:9a:92:97:a2:dc:0b:56:33:
         3d:73:18:ff:ca:00:2b:30:d9:8f:e1:66:92:06:22:d1:60:c2:
         b1:06:20:f0:6f:80:bc:87:1a:75:76:ca:18:7e:b1:c2:5c:7e:
         91:d7:a0:a2:10:08:54:72:99:a4:6b:14:a1:7c:6e:ab:63:3b:
         47:5d:e3:f9:32:e3:77:6a:72:13:06:85:70:00:33:09:b6:b6:
         05:15:6e:57:82:75:47:25:7f:69:f6:55:de:46:2c:b9:8a:5d:
         cd:b1:98:c7:05:97:33:1f:f4:d3:f3:2d:c9:98:b8:bc:c9:7a:
         01:35:2b:e1:bb:4a:4c:e8:71:55:dd:e5:d3:6c:60:91:ef:8f:
         5b:7f:c7:cc:5c:68:f7:36:50:20:aa:df:f3:21:35:93:79:0a:
         1d:4c:13:2e:34:fe:4f:d3:f4:24:43:93:94:6e:46:79:79:cf:
         c4:c4:ee:a1:51:a1:18:e2:ab:62:6b:1d:dc:73:6c:44:eb:a1:
         66:60:c8:9b:e6:78:12:f5:87:c8:c2:12:2a:b2:b9:30:83:5f:
         14:4f:3e:5a
-----BEGIN CERTIFICATE-----
MIIFNTCCBB2gAwIBAgIBAjANBgkqhkiG9w0BAQsFADCBqzELMAkGA1UEBhMCVVMx
CzAJBgNVBAgTAkNBMRUwEwYDVQQHEwxTYW5GcmFuY2lzY28xFTATBgNVBAoTDEZv
cnQtRnVuc3RvbjEdMBsGA1UECxMUTXlPcmdhbml6YXRpb25hbFVuaXQxDTALBgNV
BAMTBEFsZXgxEDAOBgNVBCkTB0Vhc3lSU0ExITAfBgkqhkiG9w0BCQEWEm1lQG15
aG9zdC5teWRvbWFpbjAeFw0xNDExMDkyMDI4MzlaFw0yNDExMDYyMDI4MzlaMIGp
MQswCQYDVQQGEwJVUzELMAkGA1UECBMCQ0ExFTATBgNVBAcTDFNhbkZyYW5jaXNj
bzEVMBMGA1UEChMMRm9ydC1GdW5zdG9uMR0wGwYDVQQLExRNeU9yZ2FuaXphdGlv
bmFsVW5pdDELMAkGA1UEAxMCYzExEDAOBgNVBCkTB0Vhc3lSU0ExITAfBgkqhkiG
9w0BCQEWEm1lQG15aG9zdC5teWRvbWFpbjCCASIwDQYJKoZIhvcNAQEBBQADggEP
ADCCAQoCggEBAMYOVpNEJ4i4g8wd/TznwWRc+TiV3R0EjlL3Klta1bY6GaCDVYIQ
DaCDa5zR/heTC/xfOOfziXY4Gjsnl94Xd/Yl3544tf1dHBYCrrT/U7N8Upwknwf3
wvGU2qPa/WeHb71ajJzibx1xQ0QhLh/6wpqbcJE9JHZVe3RffEO+UMFhXsu26mjP
Z4xjuM4qC3UoMVdZaWnwF/RKPdyKoX4A712t4CB1b29+9BVD+o+92Sq7D+zPKzUz
E00sO9wtd7FbVItZ9dUTWJYYMBI6y3ImlXnQNb+ut1ONPYvLQRJC7QdjAJYjq8QK
e5Ui+sU+wxTM/PQ5kGUlZo9MYUmy5gbXidMCAwEAAaOCAWIwggFeMAkGA1UdEwQC
MAAwLQYJYIZIAYb4QgENBCAWHkVhc3ktUlNBIEdlbmVyYXRlZCBDZXJ0aWZpY2F0
ZTAdBgNVHQ4EFgQUOcpTGpj0TIC1UeOo3SoXuTjK08gwgeAGA1UdIwSB2DCB1YAU
AM2a4ZR09wyMa6izafP6okpSlv2hgbGkga4wgasxCzAJBgNVBAYTAlVTMQswCQYD
VQQIEwJDQTEVMBMGA1UEBxMMU2FuRnJhbmNpc2NvMRUwEwYDVQQKEwxGb3J0LUZ1
bnN0b24xHTAbBgNVBAsTFE15T3JnYW5pemF0aW9uYWxVbml0MQ0wCwYDVQQDEwRB
bGV4MRAwDgYDVQQpEwdFYXN5UlNBMSEwHwYJKoZIhvcNAQkBFhJtZUBteWhvc3Qu
bXlkb21haW6CCQDWtf3jtm2bADATBgNVHSUEDDAKBggrBgEFBQcDAjALBgNVHQ8E
BAMCB4AwDQYJKoZIhvcNAQELBQADggEBAE23DXvrnjoJTgdrIrXtXUHS//dbIYi7
8om41quZstLRig2bC9TWjkqieRbIauSakpei3AtWMz1zGP/KACsw2Y/hZpIGItFg
wrEGIPBvgLyHGnV2yhh+scJcfpHXoKIQCFRymaRrFKF8bqtjO0dd4/ky43dqchMG
hXAAMwm2tgUVbleCdUclf2n2Vd5GLLmKXc2xmMcFlzMf9NPzLcmYuLzJegE1K+G7
SkzocVXd5dNsYJHvj1t/x8xcaPc2UCCq3/MhNZN5Ch1MEy40/k/T9CRDk5RuRnl5
z8TE7qFRoRjiq2JrHdxzbETroWZgyJvmeBL1h8jCEiqyuTCDXxRPPlo=
-----END CERTIFICATE-----
