Certificate:
    Data:
        Version: 3 (0x2)
        Serial Number: 4 (0x4)
    Signature Algorithm: sha256WithRSAEncryption
        Issuer: C=US, ST=CA, L=SanFrancisco, O=Fort-Funston, OU=MyOrganizationalUnit, CN=Alex/name=EasyRSA/emailAddress=me@myhost.mydomain
        Validity
            Not Before: Nov  9 20:29:00 2014 GMT
            Not After : Nov  6 20:29:00 2024 GMT
        Subject: C=US, ST=CA, L=SanFrancisco, O=Fort-Funston, OU=MyOrganizationalUnit, CN=c3/name=EasyRSA/emailAddress=me@myhost.mydomain
        Subject Public Key Info:
            Public Key Algorithm: rsaEncryption
                Public-Key: (2048 bit)
                Modulus:
                    00:d0:ef:f5:e6:ff:d0:7b:c5:7c:a6:da:f6:89:4a:
                    e8:45:64:e6:66:8c:aa:34:cd:fe:24:d0:d6:48:c2:
                    a1:96:bc:cc:67:9c:d6:83:be:14:db:6f:64:7b:71:
                    90:ec:ce:9c:93:79:9e:95:59:0e:a7:7b:41:ab:1c:
                    60:e0:0f:b5:79:e8:f0:4e:46:54:26:32:7c:dd:72:
                    e3:05:86:52:0d:66:02:3d:fa:6f:a6:0c:0c:16:e3:
                    1a:6f:42:ab:df:d8:ff:f4:89:e2:b2:9b:03:7d:ce:
                    ee:9d:a6:dd:aa:65:c5:ac:17:72:04:c4:e2:70:87:
                    6e:02:85:ec:c8:9d:4a:53:a2:cb:b4:e8:4e:22:e9:
                    27:1f:81:b0:44:0f:51:7a:8a:f4:71:ff:f8:4d:34:
                    82:6c:07:6c:ee:ce:41:9c:04:a5:f6:16:c1:b9:c8:
                    a0:1b:bd:5a:80:3f:c7:41:5c:ce:ad:41:fe:72:f5:
                    dc:fe:bf:bf:c2:eb:c1:9e:f0:74:79:df:88:29:45:
                    7c:46:0a:09:9c:22:d0:ec:b4:b7:e5:1b:4f:b6:f0:
                    8f:4e:7d:dc:1d:de:7a:95:74:32:75:3c:da:6a:ec:
                    a2:e0:1b:95:e6:41:5c:b1:ed:79:4b:33:14:72:63:
                    ea:94:e1:34:8a:5b:27:eb:f8:88:54:60:1d:06:2b:
                    2d:f3
                Exponent: 65537 (0x10001)
        X509v3 extensions:
            X509v3 Basic Constraints: 
                CA:FALSE
            Netscape Comment: 
                Easy-RSA Generated Certificate
            X509v3 Subject Key Identifier: 
                DE:99:01:C8:D3:A8:6A:88:AA:D8:96:2D:F9:CC:35:F9:53:0A:B7:4C
            X509v3 Authority Key Identifier: 
                keyid:00:CD:9A:E1:94:74:F7:0C:8C:6B:A8:B3:69:F3:FA:A2:4A:52:96:FD
                DirName:/C=US/ST=CA/L=SanFrancisco/O=Fort-Funston/OU=MyOrganizationalUnit/CN=Alex/name=EasyRSA/emailAddress=me@myhost.mydomain
                serial:D6:B5:FD:E3:B6:6D:9B:00

            X509v3 Extended Key Usage: 
                TLS Web Client Authentication
            X509v3 Key Usage: 
                Digital Signature
    Signature Algorithm: sha256WithRSAEncryption
         4d:aa:e5:c2:d3:52:7f:08:ea:1f:be:c9:57:1c:07:71:76:9d:
         21:11:e4:43:29:ef:d2:f3:28:b8:07:6b:fc:bc:4c:36:86:e5:
         43:f6:f1:2a:e3:13:98:1b:8c:73:48:9b:2c:95:03:45:c7:01:
         0b:9f:2c:16:90:1c:ee:b2:aa:59:0d:99:0b:2c:36:fa:aa:7f:
         b4:de:7c:73:dd:42:f7:22:2e:c7:8c:5d:a5:72:84:d2:b4:1a:
         c2:63:58:7a:22:01:6f:0e:6c:7a:be:0e:00:84:7f:ee:ab:2d:
         04:eb:ca:18:68:8e:1d:7d:b9:eb:ad:8a:0d:9e:17:69:9b:de:
         7f:03:99:7f:5c:68:ee:9a:f7:74:eb:02:46:9a:92:c9:6b:af:
         37:dd:d4:c4:ff:55:1d:79:f0:96:5b:30:2b:cb:b5:cd:95:b6:
         f9:31:1a:6d:34:75:b7:34:15:b5:48:38:38:7b:08:d1:bc:5c:
         cc:d5:f4:8f:3e:eb:55:6d:41:21:c1:2a:30:ca:9e:83:18:da:
         85:e3:14:6e:9a:06:5f:12:a3:f0:b9:36:f8:ee:b1:ce:65:19:
         66:2c:4a:be:84:ec:2e:44:46:f7:f0:fa:4f:0c:d9:ab:9a:c1:
         1e:96:34:72:84:88:43:30:1c:d4:ad:83:08:dc:4f:52:50:14:
         04:fd:b4:5a
-----BEGIN CERTIFICATE-----
MIIFNTCCBB2gAwIBAgIBBDANBgkqhkiG9w0BAQsFADCBqzELMAkGA1UEBhMCVVMx
CzAJBgNVBAgTAkNBMRUwEwYDVQQHEwxTYW5GcmFuY2lzY28xFTATBgNVBAoTDEZv
cnQtRnVuc3RvbjEdMBsGA1UECxMUTXlPcmdhbml6YXRpb25hbFVuaXQxDTALBgNV
BAMTBEFsZXgxEDAOBgNVBCkTB0Vhc3lSU0ExITAfBgkqhkiG9w0BCQEWEm1lQG15
aG9zdC5teWRvbWFpbjAeFw0xNDExMDkyMDI5MDBaFw0yNDExMDYyMDI5MDBaMIGp
MQswCQYDVQQGEwJVUzELMAkGA1UECBMCQ0ExFTATBgNVBAcTDFNhbkZyYW5jaXNj
bzEVMBMGA1UEChMMRm9ydC1GdW5zdG9uMR0wGwYDVQQLExRNeU9yZ2FuaXphdGlv
bmFsVW5pdDELMAkGA1UEAxMCYzMxEDAOBgNVBCkTB0Vhc3lSU0ExITAfBgkqhkiG
9w0BCQEWEm1lQG15aG9zdC5teWRvbWFpbjCCASIwDQYJKoZIhvcNAQEBBQADggEP
ADCCAQoCggEBANDv9eb/0HvFfKba9olK6EVk5maMqjTN/iTQ1kjCoZa8zGec1oO+
FNtvZHtxkOzOnJN5npVZDqd7QascYOAPtXno8E5GVCYyfN1y4wWGUg1mAj36b6YM
DBbjGm9Cq9/Y//SJ4rKbA33O7p2m3aplxawXcgTE4nCHbgKF7MidSlOiy7ToTiLp
Jx+BsEQPUXqK9HH/+E00gmwHbO7OQZwEpfYWwbnIoBu9WoA/x0Fczq1B/nL13P6/
v8LrwZ7wdHnfiClFfEYKCZwi0Oy0t+UbT7bwj0593B3eepV0MnU82mrsouAbleZB
XLHteUszFHJj6pThNIpbJ+v4iFRgHQYrLfMCAwEAAaOCAWIwggFeMAkGA1UdEwQC
MAAwLQYJYIZIAYb4QgENBCAWHkVhc3ktUlNBIEdlbmVyYXRlZCBDZXJ0aWZpY2F0
ZTAdBgNVHQ4EFgQU3pkByNOoaoiq2JYt+cw1+VMKt0wwgeAGA1UdIwSB2DCB1YAU
AM2a4ZR09wyMa6izafP6okpSlv2hgbGkga4wgasxCzAJBgNVBAYTAlVTMQswCQYD
VQQIEwJDQTEVMBMGA1UEBxMMU2FuRnJhbmNpc2NvMRUwEwYDVQQKEwxGb3J0LUZ1
bnN0b24xHTAbBgNVBAsTFE15T3JnYW5pemF0aW9uYWxVbml0MQ0wCwYDVQQDEwRB
bGV4MRAwDgYDVQQpEwdFYXN5UlNBMSEwHwYJKoZIhvcNAQkBFhJtZUBteWhvc3Qu
bXlkb21haW6CCQDWtf3jtm2bADATBgNVHSUEDDAKBggrBgEFBQcDAjALBgNVHQ8E
BAMCB4AwDQYJKoZIhvcNAQELBQADggEBAE2q5cLTUn8I6h++yVccB3F2nSER5EMp
79LzKLgHa/y8TDaG5UP28SrjE5gbjHNImyyVA0XHAQufLBaQHO6yqlkNmQssNvqq
f7TefHPdQvciLseMXaVyhNK0GsJjWHoiAW8ObHq+DgCEf+6rLQTryhhojh19ueut
ig2eF2mb3n8DmX9caO6a93TrAkaakslrrzfd1MT/VR158JZbMCvLtc2VtvkxGm00
dbc0FbVIODh7CNG8XMzV9I8+61VtQSHBKjDKnoMY2oXjFG6aBl8So/C5Nvjusc5l
GWYsSr6E7C5ERvfw+k8M2auawR6WNHKEiEMwHNStgwjcT1JQFAT9tFo=
-----END CERTIFICATE-----
