Certificate:
    Data:
        Version: 3 (0x2)
        Serial Number: 6 (0x6)
    Signature Algorithm: sha256WithRSAEncryption
        Issuer: C=US, ST=CA, L=SanFrancisco, O=Fort-Funston, OU=MyOrganizationalUnit, CN=Alex/name=EasyRSA/emailAddress=me@myhost.mydomain
        Validity
            Not Before: Nov  9 20:29:21 2014 GMT
            Not After : Nov  6 20:29:21 2024 GMT
        Subject: C=US, ST=CA, L=SanFrancisco, O=Fort-Funston, OU=MyOrganizationalUnit, CN=c5/name=EasyRSA/emailAddress=me@myhost.mydomain
        Subject Public Key Info:
            Public Key Algorithm: rsaEncryption
                Public-Key: (2048 bit)
                Modulus:
                    00:d5:7d:92:25:22:ef:6f:2f:f5:31:56:89:c7:30:
                    2b:9b:5f:ae:bd:d3:e8:29:d3:32:2b:5b:4a:44:fd:
                    a5:e2:b9:4d:62:62:62:2c:95:ee:48:b9:17:a7:36:
                    89:3c:01:5e:ce:c5:6d:00:7b:b7:f4:61:7e:9d:9c:
                    18:94:fc:bd:85:40:88:fc:52:57:db:06:fe:b8:59:
                    d8:b8:07:59:0a:5c:6f:f4:df:ec:cf:2b:da:48:6b:
                    69:2d:21:4e:98:42:4d:fa:c1:fb:20:4e:b5:aa:d9:
                    31:c4:c7:9e:fc:19:f5:e5:03:0d:fe:d5:99:04:a6:
                    fe:f8:76:ee:f0:52:1e:69:29:0c:bd:8a:9a:96:1f:
                    2a:2f:13:31:f9:6c:fe:31:0e:fd:45:8f:20:bb:a8:
                    94:02:0a:db:60:55:53:69:82:45:19:e8:50:f9:df:
                    05:72:65:b2:f8:df:08:9e:30:d0:20:90:a3:ba:b1:
                    5a:9c:b1:0e:81:05:78:c4:6b:58:02:a3:8a:18:8c:
                    70:fb:81:cf:c6:11:2f:06:6b:0e:0c:61:08:80:d8:
                    9a:56:22:6b:20:ec:f4:98:65:2d:e0:93:2b:dd:ff:
                    82:b9:a2:7a:db:d9:ed:5c:30:6c:5a:85:af:02:95:
                    63:18:ef:73:77:22:0e:a1:2e:6c:45:c5:fc:a7:e4:
                    4c:f9
                Exponent: 65537 (0x10001)
        X509v3 extensions:
            X509v3 Basic Constraints: 
                CA:FALSE
            Netscape Comment: 
                Easy-RSA Generated Certificate
            X509v3 Subject Key Identifier: 
                7B:C0:5A:8E:22:E6:74:87:C1:14:06:B4:16:E6:78:7D:08:97:D4:BD
            X509v3 Authority Key Identifier: 
                keyid:00:CD:9A:E1:94:74:F7:0C:8C:6B:A8:B3:69:F3:FA:A2:4A:52:96:FD
                DirName:/C=US/ST=CA/L=SanFrancisco/O=Fort-Funston/OU=MyOrganizationalUnit/CN=Alex/name=EasyRSA/emailAddress=me@myhost.mydomain
                serial:D6:B5:FD:E3:B6:6D:9B:00

            X509v3 Extended Key Usage: 
                TLS Web Client Authentication
            X509v3 Key Usage: 
                Digital Signature
    Signature Algorithm: sha256WithRSAEncryption
         59:a6:c3:13:7a:b4:41:79:9a:45:6b:39:00:8c:3a:3f:fa:ab:
         f7:5e:0c:20:7b:ac:57:e2:a6:df:4f:c1:1c:15:34:c4:da:5e:
         e2:42:fd:b1:22:43:a6:d4:33:41:15:7d:fa:dc:4d:f7:ba:58:
         1a:d2:b6:5c:6a:df:9c:2b:f5:63:59:65:b9:41:fa:b8:5c:fb:
         e9:82:43:9a:a1:6a:13:97:1b:6a:d3:04:5d:50:c1:56:92:b3:
         dc:e6:97:ee:89:16:c6:fe:a0:5e:3d:58:b3:62:5f:01:48:21:
         ce:1c:07:29:ad:3f:1f:d1:3f:27:8f:82:bd:9f:e8:fc:23:79:
         bb:fc:47:5e:90:9b:07:17:58:6f:c0:12:5e:9f:e1:c4:f9:13:
         3f:4c:7e:b2:c9:e1:46:c8:ac:f7:96:f7:60:23:7d:d7:d4:cd:
         27:b8:01:fa:e3:53:73:79:01:d1:b7:d1:78:06:dc:1b:b0:45:
         b4:1e:62:1c:99:e6:be:35:e6:d1:52:51:95:e3:61:e0:9a:e0:
         84:d0:96:b2:49:b3:18:f0:94:30:96:07:1e:35:5a:6c:d9:b1:
         32:88:5b:be:11:b9:b8:7b:90:93:32:03:f2:18:8e:aa:a6:a1:
         64:be:3f:e9:2c:8f:2c:e7:69:68:93:07:2a:89:93:34:50:04:
         1c:4d:ee:2c
-----BEGIN CERTIFICATE-----
MIIFNTCCBB2gAwIBAgIBBjANBgkqhkiG9w0BAQsFADCBqzELMAkGA1UEBhMCVVMx
CzAJBgNVBAgTAkNBMRUwEwYDVQQHEwxTYW5GcmFuY2lzY28xFTATBgNVBAoTDEZv
cnQtRnVuc3RvbjEdMBsGA1UECxMUTXlPcmdhbml6YXRpb25hbFVuaXQxDTALBgNV
BAMTBEFsZXgxEDAOBgNVBCkTB0Vhc3lSU0ExITAfBgkqhkiG9w0BCQEWEm1lQG15
aG9zdC5teWRvbWFpbjAeFw0xNDExMDkyMDI5MjFaFw0yNDExMDYyMDI5MjFaMIGp
MQswCQYDVQQGEwJVUzELMAkGA1UECBMCQ0ExFTATBgNVBAcTDFNhbkZyYW5jaXNj
bzEVMBMGA1UEChMMRm9ydC1GdW5zdG9uMR0wGwYDVQQLExRNeU9yZ2FuaXphdGlv
bmFsVW5pdDELMAkGA1UEAxMCYzUxEDAOBgNVBCkTB0Vhc3lSU0ExITAfBgkqhkiG
9w0BCQEWEm1lQG15aG9zdC5teWRvbWFpbjCCASIwDQYJKoZIhvcNAQEBBQADggEP
ADCCAQoCggEBANV9kiUi728v9TFWiccwK5tfrr3T6CnTMitbSkT9peK5TWJiYiyV
7ki5F6c2iTwBXs7FbQB7t/Rhfp2cGJT8vYVAiPxSV9sG/rhZ2LgHWQpcb/Tf7M8r
2khraS0hTphCTfrB+yBOtarZMcTHnvwZ9eUDDf7VmQSm/vh27vBSHmkpDL2KmpYf
Ki8TMfls/jEO/UWPILuolAIK22BVU2mCRRnoUPnfBXJlsvjfCJ4w0CCQo7qxWpyx
DoEFeMRrWAKjihiMcPuBz8YRLwZrDgxhCIDYmlYiayDs9JhlLeCTK93/grmietvZ
7VwwbFqFrwKVYxjvc3ciDqEubEXF/KfkTPkCAwEAAaOCAWIwggFeMAkGA1UdEwQC
MAAwLQYJYIZIAYb4QgENBCAWHkVhc3ktUlNBIEdlbmVyYXRlZCBDZXJ0aWZpY2F0
ZTAdBgNVHQ4EFgQUe8BajiLmdIfBFAa0FuZ4fQiX1L0wgeAGA1UdIwSB2DCB1YAU
AM2a4ZR09wyMa6izafP6okpSlv2hgbGkga4wgasxCzAJBgNVBAYTAlVTMQswCQYD
VQQIEwJDQTEVMBMGA1UEBxMMU2FuRnJhbmNpc2NvMRUwEwYDVQQKEwxGb3J0LUZ1
bnN0b24xHTAbBgNVBAsTFE15T3JnYW5pemF0aW9uYWxVbml0MQ0wCwYDVQQDEwRB
bGV4MRAwDgYDVQQpEwdFYXN5UlNBMSEwHwYJKoZIhvcNAQkBFhJtZUBteWhvc3Qu
bXlkb21haW6CCQDWtf3jtm2bADATBgNVHSUEDDAKBggrBgEFBQcDAjALBgNVHQ8E
BAMCB4AwDQYJKoZIhvcNAQELBQADggEBAFmmwxN6tEF5mkVrOQCMOj/6q/deDCB7
rFfipt9PwRwVNMTaXuJC/bEiQ6bUM0EVffrcTfe6WBrStlxq35wr9WNZZblB+rhc
++mCQ5qhahOXG2rTBF1QwVaSs9zml+6JFsb+oF49WLNiXwFIIc4cBymtPx/RPyeP
gr2f6Pwjebv8R16QmwcXWG/AEl6f4cT5Ez9MfrLJ4UbIrPeW92AjfdfUzSe4Afrj
U3N5AdG30XgG3BuwRbQeYhyZ5r415tFSUZXjYeCa4ITQlrJJsxjwlDCWBx41WmzZ
sTKIW74Rubh7kJMyA/IYjqqmoWS+P+ksjyznaWiTByqJkzRQBBxN7iw=
-----END CERTIFICATE-----
