Certificate:
    Data:
        Version: 3 (0x2)
        Serial Number: 8 (0x8)
    Signature Algorithm: sha256WithRSAEncryption
        Issuer: C=US, ST=CA, L=SanFrancisco, O=Fort-Funston, OU=MyOrganizationalUnit, CN=Alex/name=EasyRSA/emailAddress=me@myhost.mydomain
        Validity
            Not Before: Nov  9 20:29:37 2014 GMT
            Not After : Nov  6 20:29:37 2024 GMT
        Subject: C=US, ST=CA, L=SanFrancisco, O=Fort-Funston, OU=MyOrganizationalUnit, CN=c7/name=EasyRSA/emailAddress=me@myhost.mydomain
        Subject Public Key Info:
            Public Key Algorithm: rsaEncryption
                Public-Key: (2048 bit)
                Modulus:
                    00:c1:b8:73:2a:a6:1d:0a:8c:93:5a:79:70:98:d2:
                    00:08:2d:38:de:96:63:f0:a3:2d:79:82:c5:12:00:
                    55:be:e0:db:59:cf:eb:98:35:b8:3f:b3:88:73:24:
                    92:73:ba:7a:fa:c5:3e:f7:47:6e:29:6c:4b:e8:59:
                    8c:c9:ef:7e:1b:96:49:7b:6d:ec:d5:3a:cf:be:41:
                    7e:9b:3e:88:e7:88:dc:82:34:bd:dc:a1:e0:8b:38:
                    f7:b7:0b:54:f9:43:27:41:1f:1e:48:96:22:a5:1b:
                    91:10:48:95:2b:11:02:d5:50:05:c4:48:63:02:14:
                    3b:1f:29:bf:bd:60:bb:1d:3a:01:a7:d3:96:9d:2a:
                    3e:7e:5c:d6:90:08:66:f1:2f:3e:27:14:e9:2e:c0:
                    01:6e:8e:a7:26:05:7c:ab:40:37:7c:15:01:f6:a5:
                    7d:4d:5d:86:c6:51:cc:56:b7:77:09:71:03:82:f2:
                    17:81:b9:fc:f6:df:4e:7a:ea:82:23:3e:26:fb:c3:
                    90:04:01:69:4f:97:8e:64:ba:01:c3:dd:d7:ac:3f:
                    d3:08:75:48:0e:33:7e:fc:a6:3a:79:41:5a:5c:ff:
                    0f:99:4f:97:50:84:c7:8b:c4:71:c9:39:dc:41:6f:
                    ea:c2:43:23:40:56:f1:bb:1c:f6:01:ea:44:c4:eb:
                    3f:63
                Exponent: 65537 (0x10001)
        X509v3 extensions:
            X509v3 Basic Constraints: 
                CA:FALSE
            Netscape Comment: 
                Easy-RSA Generated Certificate
            X509v3 Subject Key Identifier: 
                C5:F5:6C:FC:F3:C8:B6:72:76:71:F8:52:73:2C:85:55:B3:9D:5F:5C
            X509v3 Authority Key Identifier: 
                keyid:00:CD:9A:E1:94:74:F7:0C:8C:6B:A8:B3:69:F3:FA:A2:4A:52:96:FD
                DirName:/C=US/ST=CA/L=SanFrancisco/O=Fort-Funston/OU=MyOrganizationalUnit/CN=Alex/name=EasyRSA/emailAddress=me@myhost.mydomain
                serial:D6:B5:FD:E3:B6:6D:9B:00

            X509v3 Extended Key Usage: 
                TLS Web Client Authentication
            X509v3 Key Usage: 
                Digital Signature
    Signature Algorithm: sha256WithRSAEncryption
         81:a9:45:de:52:59:59:ac:4a:3e:28:93:00:6b:48:42:3a:6a:
         ac:f8:26:8a:0b:26:a5:2e:3b:7e:31:60:40:f5:a1:03:75:5f:
         d6:6d:5a:49:49:f2:e2:d4:07:fe:38:88:28:67:a5:5f:74:a2:
         25:22:af:3d:44:25:2e:7c:38:67:d2:45:49:2c:b3:25:62:17:
         33:00:7e:01:c9:02:3f:6f:99:95:8c:48:26:bf:c1:68:ef:5e:
         4c:95:88:43:fa:77:ba:9d:a5:78:b6:1b:07:98:92:41:be:10:
         3c:4f:55:f0:48:f7:27:2f:c3:7b:9e:d2:09:53:94:2f:f2:cb:
         71:23:9f:05:32:51:19:4f:e3:c1:d4:5b:51:83:71:1a:1e:f6:
         16:c5:7c:1c:5e:bb:1a:d5:88:83:0c:1e:51:23:63:3a:12:53:
         2c:5f:f2:8b:2b:a4:a7:0f:21:ae:92:bb:7a:60:d5:86:87:84:
         8f:02:18:66:61:a6:6a:a0:ea:5f:f5:06:fb:f0:0b:b2:8c:09:
         50:a4:22:8c:0f:64:d1:3f:65:a5:4b:7e:34:76:f8:85:74:1c:
         b4:bb:07:ad:dc:f4:b4:01:7d:fb:57:7f:c4:82:24:1e:07:e6:
         64:77:89:60:01:4a:30:6c:44:57:63:28:87:43:f5:ec:a9:1a:
         d5:5b:5e:78
-----BEGIN CERTIFICATE-----
MIIFNTCCBB2gAwIBAgIBCDANBgkqhkiG9w0BAQsFADCBqzELMAkGA1UEBhMCVVMx
CzAJBgNVBAgTAkNBMRUwEwYDVQQHEwxTYW5GcmFuY2lzY28xFTATBgNVBAoTDEZv
cnQtRnVuc3RvbjEdMBsGA1UECxMUTXlPcmdhbml6YXRpb25hbFVuaXQxDTALBgNV
BAMTBEFsZXgxEDAOBgNVBCkTB0Vhc3lSU0ExITAfBgkqhkiG9w0BCQEWEm1lQG15
aG9zdC5teWRvbWFpbjAeFw0xNDExMDkyMDI5MzdaFw0yNDExMDYyMDI5MzdaMIGp
MQswCQYDVQQGEwJVUzELMAkGA1UECBMCQ0ExFTATBgNVBAcTDFNhbkZyYW5jaXNj
bzEVMBMGA1UEChMMRm9ydC1GdW5zdG9uMR0wGwYDVQQLExRNeU9yZ2FuaXphdGlv
bmFsVW5pdDELMAkGA1UEAxMCYzcxEDAOBgNVBCkTB0Vhc3lSU0ExITAfBgkqhkiG
9w0BCQEWEm1lQG15aG9zdC5teWRvbWFpbjCCASIwDQYJKoZIhvcNAQEBBQADggEP
ADCCAQoCggEBAMG4cyqmHQqMk1p5cJjSAAgtON6WY/CjLXmCxRIAVb7g21nP65g1
uD+ziHMkknO6evrFPvdHbilsS+hZjMnvfhuWSXtt7NU6z75Bfps+iOeI3II0vdyh
4Is497cLVPlDJ0EfHkiWIqUbkRBIlSsRAtVQBcRIYwIUOx8pv71gux06AafTlp0q
Pn5c1pAIZvEvPicU6S7AAW6OpyYFfKtAN3wVAfalfU1dhsZRzFa3dwlxA4LyF4G5
/PbfTnrqgiM+JvvDkAQBaU+XjmS6AcPd16w/0wh1SA4zfvymOnlBWlz/D5lPl1CE
x4vEcck53EFv6sJDI0BW8bsc9gHqRMTrP2MCAwEAAaOCAWIwggFeMAkGA1UdEwQC
MAAwLQYJYIZIAYb4QgENBCAWHkVhc3ktUlNBIEdlbmVyYXRlZCBDZXJ0aWZpY2F0
ZTAdBgNVHQ4EFgQUxfVs/PPItnJ2cfhScyyFVbOdX1wwgeAGA1UdIwSB2DCB1YAU
AM2a4ZR09wyMa6izafP6okpSlv2hgbGkga4wgasxCzAJBgNVBAYTAlVTMQswCQYD
VQQIEwJDQTEVMBMGA1UEBxMMU2FuRnJhbmNpc2NvMRUwEwYDVQQKEwxGb3J0LUZ1
bnN0b24xHTAbBgNVBAsTFE15T3JnYW5pemF0aW9uYWxVbml0MQ0wCwYDVQQDEwRB
bGV4MRAwDgYDVQQpEwdFYXN5UlNBMSEwHwYJKoZIhvcNAQkBFhJtZUBteWhvc3Qu
bXlkb21haW6CCQDWtf3jtm2bADATBgNVHSUEDDAKBggrBgEFBQcDAjALBgNVHQ8E
BAMCB4AwDQYJKoZIhvcNAQELBQADggEBAIGpRd5SWVmsSj4okwBrSEI6aqz4JooL
JqUuO34xYED1oQN1X9ZtWklJ8uLUB/44iChnpV90oiUirz1EJS58OGfSRUkssyVi
FzMAfgHJAj9vmZWMSCa/wWjvXkyViEP6d7qdpXi2GweYkkG+EDxPVfBI9ycvw3ue
0glTlC/yy3EjnwUyURlP48HUW1GDcRoe9hbFfBxeuxrViIMMHlEjYzoSUyxf8osr
pKcPIa6Su3pg1YaHhI8CGGZhpmqg6l/1BvvwC7KMCVCkIowPZNE/ZaVLfjR2+IV0
HLS7B63c9LQBfftXf8SCJB4H5mR3iWABSjBsRFdjKIdD9eypGtVbXng=
-----END CERTIFICATE-----
