Certificate:
    Data:
        Version: 3 (0x2)
        Serial Number: 9 (0x9)
    Signature Algorithm: sha256WithRSAEncryption
        Issuer: C=US, ST=CA, L=SanFrancisco, O=Fort-Funston, OU=MyOrganizationalUnit, CN=Alex/name=EasyRSA/emailAddress=me@myhost.mydomain
        Validity
            Not Before: Nov  9 20:29:48 2014 GMT
            Not After : Nov  6 20:29:48 2024 GMT
        Subject: C=US, ST=CA, L=SanFrancisco, O=Fort-Funston, OU=MyOrganizationalUnit, CN=c8/name=EasyRSA/emailAddress=me@myhost.mydomain
        Subject Public Key Info:
            Public Key Algorithm: rsaEncryption
                Public-Key: (2048 bit)
                Modulus:
                    00:ba:b0:b2:05:e6:0a:79:c2:08:52:73:5d:8e:cb:
                    a9:08:59:bb:92:f3:bd:1f:a2:eb:35:2d:a3:c0:ae:
                    ca:25:a4:84:03:e8:9f:1e:a8:40:40:22:45:2d:ff:
                    6a:e1:25:2a:25:52:31:2b:ee:bf:a7:d9:a3:5f:13:
                    bc:34:3a:6c:f4:9f:3b:fc:9a:51:fb:fb:ae:ec:fd:
                    60:97:86:9a:5e:25:da:48:d8:e6:cf:88:90:45:9d:
                    87:81:1d:b7:4d:fc:cc:d0:d7:7e:54:49:83:b5:8a:
                    30:b5:0c:fd:74:a9:63:7a:9c:e4:00:07:e9:35:55:
                    64:9b:4b:27:11:82:6b:31:21:d7:c3:6a:8e:53:af:
                    67:cf:e7:bc:b8:7c:ed:4a:78:f8:f2:6d:0e:a3:57:
                    dd:c7:88:bb:10:be:f1:8e:5b:4e:54:a4:5f:10:84:
                    eb:5d:4c:05:b5:55:18:89:3e:63:56:b9:06:6f:5b:
                    eb:f6:9a:bd:cf:f6:12:d3:de:34:07:ae:4d:00:ed:
                    c2:75:98:47:30:4c:5c:0c:c9:d7:8a:13:20:b9:e2:
                    e8:62:fd:e1:5c:53:68:f4:3e:4d:b4:97:b4:88:00:
                    75:26:e4:7a:60:f1:94:0e:89:21:bb:2c:9e:40:25:
                    24:30:dd:37:74:44:0a:6e:f4:be:6d:23:fa:d2:72:
                    0a:ef
                Exponent: 65537 (0x10001)
        X509v3 extensions:
            X509v3 Basic Constraints: 
                CA:FALSE
            Netscape Comment: 
                Easy-RSA Generated Certificate
            X509v3 Subject Key Identifier: 
                17:01:C5:A0:3D:EF:48:7B:ED:09:E9:E1:93:5E:FD:91:EE:24:76:DA
            X509v3 Authority Key Identifier: 
                keyid:00:CD:9A:E1:94:74:F7:0C:8C:6B:A8:B3:69:F3:FA:A2:4A:52:96:FD
                DirName:/C=US/ST=CA/L=SanFrancisco/O=Fort-Funston/OU=MyOrganizationalUnit/CN=Alex/name=EasyRSA/emailAddress=me@myhost.mydomain
                serial:D6:B5:FD:E3:B6:6D:9B:00

            X509v3 Extended Key Usage: 
                TLS Web Client Authentication
            X509v3 Key Usage: 
                Digital Signature
    Signature Algorithm: sha256WithRSAEncryption
         37:d2:97:b2:15:c0:3a:b7:ed:b0:1f:fe:ba:c1:9c:aa:f3:b1:
         a4:e0:cc:b5:15:44:36:b7:e7:1e:4f:fa:d0:0c:57:cc:c8:5e:
         88:04:85:2c:5f:75:f0:5e:25:3d:0d:b4:2f:9e:e5:81:07:28:
         6d:d9:ab:fe:5d:0b:16:64:ec:bb:e9:cf:77:ea:4c:fe:37:bb:
         54:06:eb:00:e2:e4:b5:70:13:12:41:84:99:54:49:f7:b9:40:
         27:6c:36:16:4b:14:2a:30:b9:bf:c0:3e:14:eb:52:1b:ca:08:
         c5:fd:00:99:42:cb:49:1c:a8:a4:8e:b3:14:0f:09:bd:f1:87:
         74:d5:21:9d:01:e4:e0:e2:58:20:ac:1a:c8:80:2c:17:28:a2:
         db:63:3e:ff:c6:6a:87:c0:42:c0:70:99:c6:2f:88:03:e9:2f:
         57:35:78:d0:8d:26:b1:6f:9f:e3:64:fd:5f:b0:b9:c0:d6:2f:
         87:07:29:db:b1:6e:48:a9:9f:9b:83:eb:40:d2:e2:4e:ee:9b:
         6b:b8:68:23:2a:5e:f6:27:f4:b6:be:75:6e:db:a6:70:25:e0:
         7a:57:ce:cb:be:a6:0c:60:52:f2:20:71:08:89:4f:1e:d6:1e:
         ad:ad:8d:3f:d3:eb:75:bb:a0:4f:af:99:8b:b5:ad:48:19:73:
         89:b3:ba:45
-----BEGIN CERTIFICATE-----
MIIFNTCCBB2gAwIBAgIBCTANBgkqhkiG9w0BAQsFADCBqzELMAkGA1UEBhMCVVMx
CzAJBgNVBAgTAkNBMRUwEwYDVQQHEwxTYW5GcmFuY2lzY28xFTATBgNVBAoTDEZv
cnQtRnVuc3RvbjEdMBsGA1UECxMUTXlPcmdhbml6YXRpb25hbFVuaXQxDTALBgNV
BAMTBEFsZXgxEDAOBgNVBCkTB0Vhc3lSU0ExITAfBgkqhkiG9w0BCQEWEm1lQG15
aG9zdC5teWRvbWFpbjAeFw0xNDExMDkyMDI5NDhaFw0yNDExMDYyMDI5NDhaMIGp
MQswCQYDVQQGEwJVUzELMAkGA1UECBMCQ0ExFTATBgNVBAcTDFNhbkZyYW5jaXNj
bzEVMBMGA1UEChMMRm9ydC1GdW5zdG9uMR0wGwYDVQQLExRNeU9yZ2FuaXphdGlv
bmFsVW5pdDELMAkGA1UEAxMCYzgxEDAOBgNVBCkTB0Vhc3lSU0ExITAfBgkqhkiG
9w0BCQEWEm1lQG15aG9zdC5teWRvbWFpbjCCASIwDQYJKoZIhvcNAQEBBQADggEP
ADCCAQoCggEBALqwsgXmCnnCCFJzXY7LqQhZu5LzvR+i6zUto8CuyiWkhAPonx6o
QEAiRS3/auElKiVSMSvuv6fZo18TvDQ6bPSfO/yaUfv7ruz9YJeGml4l2kjY5s+I
kEWdh4Edt038zNDXflRJg7WKMLUM/XSpY3qc5AAH6TVVZJtLJxGCazEh18NqjlOv
Z8/nvLh87Up4+PJtDqNX3ceIuxC+8Y5bTlSkXxCE611MBbVVGIk+Y1a5Bm9b6/aa
vc/2EtPeNAeuTQDtwnWYRzBMXAzJ14oTILni6GL94VxTaPQ+TbSXtIgAdSbkemDx
lA6JIbssnkAlJDDdN3RECm70vm0j+tJyCu8CAwEAAaOCAWIwggFeMAkGA1UdEwQC
MAAwLQYJYIZIAYb4QgENBCAWHkVhc3ktUlNBIEdlbmVyYXRlZCBDZXJ0aWZpY2F0
ZTAdBgNVHQ4EFgQUFwHFoD3vSHvtCenhk179ke4kdtowgeAGA1UdIwSB2DCB1YAU
AM2a4ZR09wyMa6izafP6okpSlv2hgbGkga4wgasxCzAJBgNVBAYTAlVTMQswCQYD
VQQIEwJDQTEVMBMGA1UEBxMMU2FuRnJhbmNpc2NvMRUwEwYDVQQKEwxGb3J0LUZ1
bnN0b24xHTAbBgNVBAsTFE15T3JnYW5pemF0aW9uYWxVbml0MQ0wCwYDVQQDEwRB
bGV4MRAwDgYDVQQpEwdFYXN5UlNBMSEwHwYJKoZIhvcNAQkBFhJtZUBteWhvc3Qu
bXlkb21haW6CCQDWtf3jtm2bADATBgNVHSUEDDAKBggrBgEFBQcDAjALBgNVHQ8E
BAMCB4AwDQYJKoZIhvcNAQELBQADggEBADfSl7IVwDq37bAf/rrBnKrzsaTgzLUV
RDa35x5P+tAMV8zIXogEhSxfdfBeJT0NtC+e5YEHKG3Zq/5dCxZk7Lvpz3fqTP43
u1QG6wDi5LVwExJBhJlUSfe5QCdsNhZLFCowub/APhTrUhvKCMX9AJlCy0kcqKSO
sxQPCb3xh3TVIZ0B5ODiWCCsGsiALBcoottjPv/GaofAQsBwmcYviAPpL1c1eNCN
JrFvn+Nk/V+wucDWL4cHKduxbkipn5uD60DS4k7um2u4aCMqXvYn9La+dW7bpnAl
4HpXzsu+pgxgUvIgcQiJTx7WHq2tjT/T63W7oE+vmYu1rUgZc4mzukU=
-----END CERTIFICATE-----
