Certificate:
    Data:
        Version: 3 (0x2)
        Serial Number: 7 (0x7)
    Signature Algorithm: sha256WithRSAEncryption
        Issuer: C=US, ST=CA, L=SanFrancisco, O=Fort-Funston, OU=MyOrganizationalUnit, CN=Alex/name=EasyRSA/emailAddress=me@myhost.mydomain
        Validity
            Not Before: Nov  9 20:29:30 2014 GMT
            Not After : Nov  6 20:29:30 2024 GMT
        Subject: C=US, ST=CA, L=SanFrancisco, O=Fort-Funston, OU=MyOrganizationalUnit, CN=c6/name=EasyRSA/emailAddress=me@myhost.mydomain
        Subject Public Key Info:
            Public Key Algorithm: rsaEncryption
                Public-Key: (2048 bit)
                Modulus:
                    00:d1:5a:ce:bc:d6:93:94:f9:b9:75:0a:18:0b:25:
                    05:a4:dd:fe:d9:04:6e:fb:33:5d:5e:ef:63:ff:c5:
                    15:aa:71:46:67:ab:56:52:79:5d:99:b8:44:93:55:
                    82:4c:e6:d2:28:dc:b1:13:cc:45:a7:6f:bf:de:42:
                    29:e1:90:28:c7:4c:76:87:1b:59:5d:67:96:4d:94:
                    ba:2f:18:ae:d1:5e:55:9c:03:f7:6c:86:d0:36:ef:
                    20:fa:61:aa:5a:a9:e2:06:7b:a4:19:2b:9f:05:dc:
                    76:81:21:b1:42:43:29:61:91:73:ce:05:77:aa:25:
                    1d:45:10:47:06:00:2f:4b:5c:1a:cf:d0:66:3b:2c:
                    3c:78:7e:7a:ee:e5:f6:83:95:af:38:da:7e:d0:fa:
                    f2:70:5e:55:2a:31:34:33:d7:20:fd:bb:9d:35:a7:
                    5c:8b:c0:8c:4b:49:52:04:22:4c:5e:04:24:7b:c7:
                    38:c7:56:a8:34:fa:80:bf:bc:bd:df:d0:2b:31:61:
                    4e:16:77:01:c4:52:ab:50:45:7e:bf:2d:49:cf:53:
                    a6:26:a8:d1:a0:68:a1:b2:a2:8e:0d:1f:d7:b2:7b:
                    38:27:8a:a2:a3:b4:85:78:c7:7e:c7:1a:10:21:5e:
                    0a:74:8d:89:5f:78:5b:d5:96:13:fa:9e:e2:99:99:
                    c2:3b
                Exponent: 65537 (0x10001)
        X509v3 extensions:
            X509v3 Basic Constraints: 
                CA:FALSE
            Netscape Comment: 
                Easy-RSA Generated Certificate
            X509v3 Subject Key Identifier: 
                AC:78:91:9B:D1:63:F1:5B:A4:C2:7E:91:D4:F4:11:99:AE:6B:4E:98
            X509v3 Authority Key Identifier: 
                keyid:00:CD:9A:E1:94:74:F7:0C:8C:6B:A8:B3:69:F3:FA:A2:4A:52:96:FD
                DirName:/C=US/ST=CA/L=SanFrancisco/O=Fort-Funston/OU=MyOrganizationalUnit/CN=Alex/name=EasyRSA/emailAddress=me@myhost.mydomain
                serial:D6:B5:FD:E3:B6:6D:9B:00

            X509v3 Extended Key Usage: 
                TLS Web Client Authentication
            X509v3 Key Usage: 
                Digital Signature
    Signature Algorithm: sha256WithRSAEncryption
         80:fc:e1:bd:c8:03:34:5e:0a:8f:65:dd:ee:98:c5:fe:d7:45:
         a5:7b:c9:3b:73:30:5e:05:84:c5:24:48:10:75:55:06:c2:b1:
         03:fe:c3:f0:5b:c2:15:9b:52:25:01:50:e7:ae:95:fe:5c:0e:
         41:12:1b:80:8c:86:b4:a4:b2:5d:6c:06:31:48:57:9a:9d:71:
         29:f3:f7:ba:ac:9f:bc:1c:8c:92:54:c3:16:c4:c4:f8:00:b8:
         78:c8:b7:1f:88:fd:31:f6:73:16:c9:fe:14:9d:59:e3:d1:57:
         ab:5a:20:76:e9:b1:39:58:43:ba:14:36:42:c7:6e:4e:30:5e:
         66:0e:bd:bc:5e:07:2f:ef:8e:32:aa:0b:68:95:ff:83:85:6b:
         02:59:07:ed:1a:4e:21:ef:40:fc:8e:8e:76:08:5c:cf:3c:50:
         9c:a6:56:c7:18:10:28:8d:52:37:9b:fc:b9:cc:3f:83:32:99:
         0b:f4:f2:7a:a6:60:83:bb:aa:7a:09:90:68:8c:21:6e:36:44:
         ed:77:1a:c7:1d:d4:0a:36:65:a6:80:c2:40:16:64:92:9d:a3:
         90:3b:c3:40:f2:b8:57:39:c0:b4:a6:94:89:7a:70:ac:e4:c7:
         88:53:fb:41:33:04:ef:22:aa:ed:c1:98:e0:bf:ae:a5:09:c1:
         b8:db:e7:f6
-----BEGIN CERTIFICATE-----
MIIFNTCCBB2gAwIBAgIBBzANBgkqhkiG9w0BAQsFADCBqzELMAkGA1UEBhMCVVMx
CzAJBgNVBAgTAkNBMRUwEwYDVQQHEwxTYW5GcmFuY2lzY28xFTATBgNVBAoTDEZv
cnQtRnVuc3RvbjEdMBsGA1UECxMUTXlPcmdhbml6YXRpb25hbFVuaXQxDTALBgNV
BAMTBEFsZXgxEDAOBgNVBCkTB0Vhc3lSU0ExITAfBgkqhkiG9w0BCQEWEm1lQG15
aG9zdC5teWRvbWFpbjAeFw0xNDExMDkyMDI5MzBaFw0yNDExMDYyMDI5MzBaMIGp
MQswCQYDVQQGEwJVUzELMAkGA1UECBMCQ0ExFTATBgNVBAcTDFNhbkZyYW5jaXNj
bzEVMBMGA1UEChMMRm9ydC1GdW5zdG9uMR0wGwYDVQQLExRNeU9yZ2FuaXphdGlv
bmFsVW5pdDELMAkGA1UEAxMCYzYxEDAOBgNVBCkTB0Vhc3lSU0ExITAfBgkqhkiG
9w0BCQEWEm1lQG15aG9zdC5teWRvbWFpbjCCASIwDQYJKoZIhvcNAQEBBQADggEP
ADCCAQoCggEBANFazrzWk5T5uXUKGAslBaTd/tkEbvszXV7vY//FFapxRmerVlJ5
XZm4RJNVgkzm0ijcsRPMRadvv95CKeGQKMdMdocbWV1nlk2Uui8YrtFeVZwD92yG
0DbvIPphqlqp4gZ7pBkrnwXcdoEhsUJDKWGRc84Fd6olHUUQRwYAL0tcGs/QZjss
PHh+eu7l9oOVrzjaftD68nBeVSoxNDPXIP27nTWnXIvAjEtJUgQiTF4EJHvHOMdW
qDT6gL+8vd/QKzFhThZ3AcRSq1BFfr8tSc9Tpiao0aBoobKijg0f17J7OCeKoqO0
hXjHfscaECFeCnSNiV94W9WWE/qe4pmZwjsCAwEAAaOCAWIwggFeMAkGA1UdEwQC
MAAwLQYJYIZIAYb4QgENBCAWHkVhc3ktUlNBIEdlbmVyYXRlZCBDZXJ0aWZpY2F0
ZTAdBgNVHQ4EFgQUrHiRm9Fj8Vukwn6R1PQRma5rTpgwgeAGA1UdIwSB2DCB1YAU
AM2a4ZR09wyMa6izafP6okpSlv2hgbGkga4wgasxCzAJBgNVBAYTAlVTMQswCQYD
VQQIEwJDQTEVMBMGA1UEBxMMU2FuRnJhbmNpc2NvMRUwEwYDVQQKEwxGb3J0LUZ1
bnN0b24xHTAbBgNVBAsTFE15T3JnYW5pemF0aW9uYWxVbml0MQ0wCwYDVQQDEwRB
bGV4MRAwDgYDVQQpEwdFYXN5UlNBMSEwHwYJKoZIhvcNAQkBFhJtZUBteWhvc3Qu
bXlkb21haW6CCQDWtf3jtm2bADATBgNVHSUEDDAKBggrBgEFBQcDAjALBgNVHQ8E
BAMCB4AwDQYJKoZIhvcNAQELBQADggEBAID84b3IAzReCo9l3e6Yxf7XRaV7yTtz
MF4FhMUkSBB1VQbCsQP+w/BbwhWbUiUBUOeulf5cDkESG4CMhrSksl1sBjFIV5qd
cSnz97qsn7wcjJJUwxbExPgAuHjItx+I/TH2cxbJ/hSdWePRV6taIHbpsTlYQ7oU
NkLHbk4wXmYOvbxeBy/vjjKqC2iV/4OFawJZB+0aTiHvQPyOjnYIXM88UJymVscY
ECiNUjeb/LnMP4MymQv08nqmYIO7qnoJkGiMIW42RO13Gscd1Ao2ZaaAwkAWZJKd
o5A7w0DyuFc5wLSmlIl6cKzkx4hT+0EzBO8iqu3BmOC/rqUJwbjb5/Y=
-----END CERTIFICATE-----
