Certificate:
    Data:
        Version: 3 (0x2)
        Serial Number: 10 (0xa)
    Signature Algorithm: sha256WithRSAEncryption
        Issuer: C=US, ST=CA, L=SanFrancisco, O=Fort-Funston, OU=MyOrganizationalUnit, CN=Alex/name=EasyRSA/emailAddress=me@myhost.mydomain
        Validity
            Not Before: Nov  9 20:29:57 2014 GMT
            Not After : Nov  6 20:29:57 2024 GMT
        Subject: C=US, ST=CA, L=SanFrancisco, O=Fort-Funston, OU=MyOrganizationalUnit, CN=c9/name=EasyRSA/emailAddress=me@myhost.mydomain
        Subject Public Key Info:
            Public Key Algorithm: rsaEncryption
                Public-Key: (2048 bit)
                Modulus:
                    00:e2:94:3e:fe:37:72:a2:93:3c:0f:b8:73:40:14:
                    7d:34:e2:56:d6:75:26:ff:e2:f6:1d:7b:a3:52:49:
                    31:42:fd:bc:e2:32:04:a3:d9:7f:83:80:85:2d:f8:
                    97:3b:cd:b1:23:9c:15:96:1a:ef:f5:ef:a3:a0:1b:
                    53:f0:a0:d4:2a:2e:3e:29:5a:ab:70:8f:33:66:0f:
                    a1:a3:66:4d:bd:7d:6b:fb:04:c2:0e:a5:08:67:ff:
                    bc:5f:eb:23:52:52:41:8c:54:4d:7f:03:24:50:12:
                    63:70:e6:12:22:12:30:14:65:1e:3f:43:25:b8:7e:
                    f5:97:5d:72:73:59:74:3a:01:79:8e:cc:4d:f4:81:
                    f4:98:80:26:8a:ca:e7:30:a0:56:aa:0e:cf:7f:ff:
                    8e:ff:da:c1:15:f5:35:2a:6c:6f:9c:f5:76:d2:71:
                    de:73:6c:85:a3:db:1c:17:31:b8:58:ff:dc:4b:9e:
                    e7:c6:7a:5a:00:02:2a:0c:28:0e:e4:88:d3:6f:c4:
                    a0:2b:b4:2a:c2:ce:5d:a8:10:4b:44:03:ee:8e:5c:
                    6e:5f:f8:3c:68:61:2a:4f:25:9a:04:02:c3:d8:10:
                    67:b8:d4:bb:12:4a:69:0e:98:77:7a:5c:1f:88:99:
                    a9:5a:e7:79:34:d5:62:b4:03:16:72:51:85:2f:78:
                    c4:4f
                Exponent: 65537 (0x10001)
        X509v3 extensions:
            X509v3 Basic Constraints: 
                CA:FALSE
            Netscape Comment: 
                Easy-RSA Generated Certificate
            X509v3 Subject Key Identifier: 
                3F:22:29:86:ED:42:EA:49:F3:E3:B0:01:70:AE:2C:C1:97:4C:3C:2F
            X509v3 Authority Key Identifier: 
                keyid:00:CD:9A:E1:94:74:F7:0C:8C:6B:A8:B3:69:F3:FA:A2:4A:52:96:FD
                DirName:/C=US/ST=CA/L=SanFrancisco/O=Fort-Funston/OU=MyOrganizationalUnit/CN=Alex/name=EasyRSA/emailAddress=me@myhost.mydomain
                serial:D6:B5:FD:E3:B6:6D:9B:00

            X509v3 Extended Key Usage: 
                TLS Web Client Authentication
            X509v3 Key Usage: 
                Digital Signature
    Signature Algorithm: sha256WithRSAEncryption
         3e:3b:7e:84:1e:02:88:0b:d5:2a:f3:2f:0d:47:67:74:34:e6:
         b5:35:21:06:bf:b3:5e:04:01:e7:65:11:0d:4d:1c:dd:68:f2:
         7e:32:e5:85:b0:30:c4:8d:ff:0d:08:f5:40:e8:5f:10:ae:6c:
         3a:2f:f6:c2:4a:4f:b6:2d:2f:0e:5e:89:5d:51:a3:f5:8d:d8:
         b8:b4:52:95:e0:0b:ef:e2:5a:cb:32:04:58:33:d0:40:60:0a:
         89:6a:86:5c:32:da:8e:42:29:7d:63:31:bf:28:7f:c0:5e:9e:
         38:e6:0a:22:76:40:53:d9:59:bd:dc:a7:49:d9:8f:1d:d5:b2:
         6b:f6:ac:b3:ad:51:25:dc:ca:7c:40:b1:07:2c:7c:30:46:76:
         ae:53:6e:b1:8a:e9:18:32:6d:a6:95:d1:a5:b0:1b:a4:e9:c5:
         8b:15:9f:6d:b9:1a:3f:6d:22:52:38:b9:5e:09:50:ca:67:72:
         35:71:3c:fc:de:5c:50:53:29:ab:45:95:ab:a5:d0:72:37:43:
         cb:7b:6a:65:c8:63:54:50:05:48:e9:09:8f:17:12:68:7c:78:
         d5:10:81:00:91:8e:a9:66:7b:af:0b:d0:72:ab:70:4e:0e:15:
         14:5a:d6:d4:b2:94:be:c4:6a:24:78:74:74:09:c6:f6:ea:21:
         29:38:0a:3a
-----BEGIN CERTIFICATE-----
MIIFNTCCBB2gAwIBAgIBCjANBgkqhkiG9w0BAQsFADCBqzELMAkGA1UEBhMCVVMx
CzAJBgNVBAgTAkNBMRUwEwYDVQQHEwxTYW5GcmFuY2lzY28xFTATBgNVBAoTDEZv
cnQtRnVuc3RvbjEdMBsGA1UECxMUTXlPcmdhbml6YXRpb25hbFVuaXQxDTALBgNV
BAMTBEFsZXgxEDAOBgNVBCkTB0Vhc3lSU0ExITAfBgkqhkiG9w0BCQEWEm1lQG15
aG9zdC5teWRvbWFpbjAeFw0xNDExMDkyMDI5NTdaFw0yNDExMDYyMDI5NTdaMIGp
MQswCQYDVQQGEwJVUzELMAkGA1UECBMCQ0ExFTATBgNVBAcTDFNhbkZyYW5jaXNj
bzEVMBMGA1UEChMMRm9ydC1GdW5zdG9uMR0wGwYDVQQLExRNeU9yZ2FuaXphdGlv
bmFsVW5pdDELMAkGA1UEAxMCYzkxEDAOBgNVBCkTB0Vhc3lSU0ExITAfBgkqhkiG
9w0BCQEWEm1lQG15aG9zdC5teWRvbWFpbjCCASIwDQYJKoZIhvcNAQEBBQADggEP
ADCCAQoCggEBAOKUPv43cqKTPA+4c0AUfTTiVtZ1Jv/i9h17o1JJMUL9vOIyBKPZ
f4OAhS34lzvNsSOcFZYa7/Xvo6AbU/Cg1CouPilaq3CPM2YPoaNmTb19a/sEwg6l
CGf/vF/rI1JSQYxUTX8DJFASY3DmEiISMBRlHj9DJbh+9ZddcnNZdDoBeY7MTfSB
9JiAJorK5zCgVqoOz3//jv/awRX1NSpsb5z1dtJx3nNshaPbHBcxuFj/3Eue58Z6
WgACKgwoDuSI02/EoCu0KsLOXagQS0QD7o5cbl/4PGhhKk8lmgQCw9gQZ7jUuxJK
aQ6Yd3pcH4iZqVrneTTVYrQDFnJRhS94xE8CAwEAAaOCAWIwggFeMAkGA1UdEwQC
MAAwLQYJYIZIAYb4QgENBCAWHkVhc3ktUlNBIEdlbmVyYXRlZCBDZXJ0aWZpY2F0
ZTAdBgNVHQ4EFgQUPyIphu1C6knz47ABcK4swZdMPC8wgeAGA1UdIwSB2DCB1YAU
AM2a4ZR09wyMa6izafP6okpSlv2hgbGkga4wgasxCzAJBgNVBAYTAlVTMQswCQYD
VQQIEwJDQTEVMBMGA1UEBxMMU2FuRnJhbmNpc2NvMRUwEwYDVQQKEwxGb3J0LUZ1
bnN0b24xHTAbBgNVBAsTFE15T3JnYW5pemF0aW9uYWxVbml0MQ0wCwYDVQQDEwRB
bGV4MRAwDgYDVQQpEwdFYXN5UlNBMSEwHwYJKoZIhvcNAQkBFhJtZUBteWhvc3Qu
bXlkb21haW6CCQDWtf3jtm2bADATBgNVHSUEDDAKBggrBgEFBQcDAjALBgNVHQ8E
BAMCB4AwDQYJKoZIhvcNAQELBQADggEBAD47foQeAogL1SrzLw1HZ3Q05rU1IQa/
s14EAedlEQ1NHN1o8n4y5YWwMMSN/w0I9UDoXxCubDov9sJKT7YtLw5eiV1Ro/WN
2Li0UpXgC+/iWssyBFgz0EBgColqhlwy2o5CKX1jMb8of8BenjjmCiJ2QFPZWb3c
p0nZjx3Vsmv2rLOtUSXcynxAsQcsfDBGdq5TbrGK6RgybaaV0aWwG6TpxYsVn225
Gj9tIlI4uV4JUMpncjVxPPzeXFBTKatFlaul0HI3Q8t7amXIY1RQBUjpCY8XEmh8
eNUQgQCRjqlme68L0HKrcE4OFRRa1tSylL7EaiR4dHQJxvbqISk4Cjo=
-----END CERTIFICATE-----
